target datalayout = "e-m:e-p270:32:32-p271:32:32-p272:64:64-i64:64-i128:128-f80:128-n8:16:32:64-S128"
target triple = "x86_64-pc-linux-gnu"

%"struct.Luau::CodeGen::BuiltinImplResult" = type { i32, i32 }
%"struct.Luau::CodeGen::IrOp" = type { i32 }

; Function Attrs: mustprogress uwtable
define internal i64 @_ZN4Luau7CodeGenL25translateBuiltinStringLenERNS0_9IrBuilderEiiiNS0_4IrOpEii(ptr noundef nonnull align 8 dereferenceable(752) %0, i32 noundef %1, i32 noundef %2, i32 noundef %3, i32 %4, i32 noundef %5, i32 noundef %6) #2 {
  %8 = alloca %"struct.Luau::CodeGen::BuiltinImplResult", align 4
  %9 = alloca %"struct.Luau::CodeGen::IrOp", align 4
  %10 = alloca ptr, align 8
  %11 = alloca i32, align 4
  %12 = alloca i32, align 4
  %13 = alloca i32, align 4
  %14 = alloca i32, align 4
  %15 = alloca i32, align 4
  %16 = alloca %"struct.Luau::CodeGen::IrOp", align 4
  %17 = alloca %"struct.Luau::CodeGen::IrOp", align 4
  %18 = alloca %"struct.Luau::CodeGen::IrOp", align 4
  %19 = alloca %"struct.Luau::CodeGen::IrOp", align 4
  %20 = alloca %"struct.Luau::CodeGen::IrOp", align 4
  %21 = alloca %"struct.Luau::CodeGen::IrOp", align 4
  %22 = alloca %"struct.Luau::CodeGen::IrOp", align 4
  %23 = alloca %"struct.Luau::CodeGen::IrOp", align 4
  %24 = alloca %"struct.Luau::CodeGen::IrOp", align 4
  %25 = alloca %"struct.Luau::CodeGen::IrOp", align 4
  %26 = alloca %"struct.Luau::CodeGen::IrOp", align 4
  %27 = alloca %"struct.Luau::CodeGen::IrOp", align 4
  %28 = alloca %"struct.Luau::CodeGen::IrOp", align 4
  %29 = getelementptr inbounds nuw %"struct.Luau::CodeGen::IrOp", ptr %9, i32 0, i32 0
  store i32 %4, ptr %29, align 4
  store ptr %0, ptr %10, align 8, !tbaa !20
  store i32 %1, ptr %11, align 4, !tbaa !22
  store i32 %2, ptr %12, align 4, !tbaa !22
  store i32 %3, ptr %13, align 4, !tbaa !22
  store i32 %5, ptr %14, align 4, !tbaa !22
  store i32 %6, ptr %15, align 4, !tbaa !22
  %30 = load i32, ptr %11, align 4, !tbaa !22
  %31 = icmp slt i32 %30, 1
  br i1 %31, label %35, label %32

32:                                               ; preds = %7
  %33 = load i32, ptr %14, align 4, !tbaa !22
  %34 = icmp sgt i32 %33, 1
  br i1 %34, label %35, label %38

35:                                               ; preds = %32, %7
  %36 = getelementptr inbounds nuw %"struct.Luau::CodeGen::BuiltinImplResult", ptr %8, i32 0, i32 0
  store i32 0, ptr %36, align 4, !tbaa !24
  %37 = getelementptr inbounds nuw %"struct.Luau::CodeGen::BuiltinImplResult", ptr %8, i32 0, i32 1
  store i32 -1, ptr %37, align 4, !tbaa !27
  br label %102

38:                                               ; preds = %32
  %39 = load ptr, ptr %10, align 8, !tbaa !20
  %40 = load ptr, ptr %10, align 8, !tbaa !20
  %41 = load i32, ptr %13, align 4, !tbaa !22
  %42 = trunc i32 %41 to i8
  %43 = call i32 @_ZN4Luau7CodeGen9IrBuilder5vmRegEh(ptr noundef nonnull align 8 dereferenceable(752) %40, i8 noundef zeroext %42)
  %44 = getelementptr inbounds nuw %"struct.Luau::CodeGen::IrOp", ptr %16, i32 0, i32 0
  store i32 %43, ptr %44, align 4
  %45 = load ptr, ptr %10, align 8, !tbaa !20
  %46 = load i32, ptr %15, align 4, !tbaa !22
  %47 = call i32 @_ZN4Luau7CodeGen9IrBuilder6vmExitEj(ptr noundef nonnull align 8 dereferenceable(752) %45, i32 noundef %46)
  %48 = getelementptr inbounds nuw %"struct.Luau::CodeGen::IrOp", ptr %17, i32 0, i32 0
  store i32 %47, ptr %48, align 4
  %49 = getelementptr inbounds nuw %"struct.Luau::CodeGen::IrOp", ptr %16, i32 0, i32 0
  %50 = load i32, ptr %49, align 4
  %51 = getelementptr inbounds nuw %"struct.Luau::CodeGen::IrOp", ptr %17, i32 0, i32 0
  %52 = load i32, ptr %51, align 4
  call void @_ZN4Luau7CodeGen9IrBuilder15loadAndCheckTagENS0_4IrOpEhS2_(ptr noundef nonnull align 8 dereferenceable(752) %39, i32 %50, i8 noundef zeroext 5, i32 %52)
  call void @llvm.lifetime.start.p0(i64 4, ptr %18) #11
  %53 = load ptr, ptr %10, align 8, !tbaa !20
  %54 = load ptr, ptr %10, align 8, !tbaa !20
  %55 = load i32, ptr %13, align 4, !tbaa !22
  %56 = trunc i32 %55 to i8
  %57 = call i32 @_ZN4Luau7CodeGen9IrBuilder5vmRegEh(ptr noundef nonnull align 8 dereferenceable(752) %54, i8 noundef zeroext %56)
  %58 = getelementptr inbounds nuw %"struct.Luau::CodeGen::IrOp", ptr %19, i32 0, i32 0
  store i32 %57, ptr %58, align 4
  %59 = getelementptr inbounds nuw %"struct.Luau::CodeGen::IrOp", ptr %19, i32 0, i32 0
  %60 = load i32, ptr %59, align 4
  %61 = call i32 @_ZN4Luau7CodeGen9IrBuilder4instENS0_5IrCmdENS0_4IrOpE(ptr noundef nonnull align 8 dereferenceable(752) %53, i8 noundef zeroext 2, i32 %60)
  %62 = getelementptr inbounds nuw %"struct.Luau::CodeGen::IrOp", ptr %18, i32 0, i32 0
  store i32 %61, ptr %62, align 4
  call void @llvm.lifetime.start.p0(i64 4, ptr %20) #11
  %63 = load ptr, ptr %10, align 8, !tbaa !20
  call void @llvm.memcpy.p0.p0.i64(ptr align 4 %21, ptr align 4 %18, i64 4, i1 false), !tbaa.struct !28
  %64 = getelementptr inbounds nuw %"struct.Luau::CodeGen::IrOp", ptr %21, i32 0, i32 0
  %65 = load i32, ptr %64, align 4
  %66 = call i32 @_ZN4Luau7CodeGen9IrBuilder4instENS0_5IrCmdENS0_4IrOpE(ptr noundef nonnull align 8 dereferenceable(752) %63, i8 noundef zeroext 56, i32 %65)
  %67 = getelementptr inbounds nuw %"struct.Luau::CodeGen::IrOp", ptr %20, i32 0, i32 0
  store i32 %66, ptr %67, align 4
  %68 = load ptr, ptr %10, align 8, !tbaa !20
  %69 = load ptr, ptr %10, align 8, !tbaa !20
  %70 = load i32, ptr %12, align 4, !tbaa !22
  %71 = trunc i32 %70 to i8
  %72 = call i32 @_ZN4Luau7CodeGen9IrBuilder5vmRegEh(ptr noundef nonnull align 8 dereferenceable(752) %69, i8 noundef zeroext %71)
  %73 = getelementptr inbounds nuw %"struct.Luau::CodeGen::IrOp", ptr %22, i32 0, i32 0
  store i32 %72, ptr %73, align 4
  %74 = load ptr, ptr %10, align 8, !tbaa !20
  call void @llvm.memcpy.p0.p0.i64(ptr align 4 %24, ptr align 4 %20, i64 4, i1 false), !tbaa.struct !28
  %75 = getelementptr inbounds nuw %"struct.Luau::CodeGen::IrOp", ptr %24, i32 0, i32 0
  %76 = load i32, ptr %75, align 4
  %77 = call i32 @_ZN4Luau7CodeGen9IrBuilder4instENS0_5IrCmdENS0_4IrOpE(ptr noundef nonnull align 8 dereferenceable(752) %74, i8 noundef zeroext 63, i32 %76)
  %78 = getelementptr inbounds nuw %"struct.Luau::CodeGen::IrOp", ptr %23, i32 0, i32 0
  store i32 %77, ptr %78, align 4
  %79 = getelementptr inbounds nuw %"struct.Luau::CodeGen::IrOp", ptr %22, i32 0, i32 0
  %80 = load i32, ptr %79, align 4
  %81 = getelementptr inbounds nuw %"struct.Luau::CodeGen::IrOp", ptr %23, i32 0, i32 0
  %82 = load i32, ptr %81, align 4
  %83 = call i32 @_ZN4Luau7CodeGen9IrBuilder4instENS0_5IrCmdENS0_4IrOpES3_(ptr noundef nonnull align 8 dereferenceable(752) %68, i8 noundef zeroext 15, i32 %80, i32 %82)
  %84 = getelementptr inbounds nuw %"struct.Luau::CodeGen::IrOp", ptr %25, i32 0, i32 0
  store i32 %83, ptr %84, align 4
  %85 = load ptr, ptr %10, align 8, !tbaa !20
  %86 = load ptr, ptr %10, align 8, !tbaa !20
  %87 = load i32, ptr %12, align 4, !tbaa !22
  %88 = trunc i32 %87 to i8
  %89 = call i32 @_ZN4Luau7CodeGen9IrBuilder5vmRegEh(ptr noundef nonnull align 8 dereferenceable(752) %86, i8 noundef zeroext %88)
  %90 = getelementptr inbounds nuw %"struct.Luau::CodeGen::IrOp", ptr %26, i32 0, i32 0
  store i32 %89, ptr %90, align 4
  %91 = load ptr, ptr %10, align 8, !tbaa !20
  %92 = call i32 @_ZN4Luau7CodeGen9IrBuilder8constTagEh(ptr noundef nonnull align 8 dereferenceable(752) %91, i8 noundef zeroext 3)
  %93 = getelementptr inbounds nuw %"struct.Luau::CodeGen::IrOp", ptr %27, i32 0, i32 0
  store i32 %92, ptr %93, align 4
  %94 = getelementptr inbounds nuw %"struct.Luau::CodeGen::IrOp", ptr %26, i32 0, i32 0
  %95 = load i32, ptr %94, align 4
  %96 = getelementptr inbounds nuw %"struct.Luau::CodeGen::IrOp", ptr %27, i32 0, i32 0
  %97 = load i32, ptr %96, align 4
  %98 = call i32 @_ZN4Luau7CodeGen9IrBuilder4instENS0_5IrCmdENS0_4IrOpES3_(ptr noundef nonnull align 8 dereferenceable(752) %85, i8 noundef zeroext 12, i32 %95, i32 %97)
  %99 = getelementptr inbounds nuw %"struct.Luau::CodeGen::IrOp", ptr %28, i32 0, i32 0
  store i32 %98, ptr %99, align 4
  %100 = getelementptr inbounds nuw %"struct.Luau::CodeGen::BuiltinImplResult", ptr %8, i32 0, i32 0
  store i32 2, ptr %100, align 4, !tbaa !24
  %101 = getelementptr inbounds nuw %"struct.Luau::CodeGen::BuiltinImplResult", ptr %8, i32 0, i32 1
  store i32 1, ptr %101, align 4, !tbaa !27
  call void @llvm.lifetime.end.p0(i64 4, ptr %20) #11
  call void @llvm.lifetime.end.p0(i64 4, ptr %18) #11
  br label %102

102:                                              ; preds = %38, %35
  %103 = load i64, ptr %8, align 4
  ret i64 %103
}