; Function Attrs: mustprogress uwtable
define internal fastcc range(i64 -4294967296, 4294967299) i64 @_ZN4Luau7CodeGenL25translateBuiltinStringLenERNS0_9IrBuilderEiiiNS0_4IrOpEii(ptr noundef nonnull align 8 dereferenceable(752) %0, i32 noundef range(i32 0, -1) %1, i32 noundef %2, i32 noundef %3, i32 noundef %4, i32 noundef %5) unnamed_addr #0 {
  %7 = icmp slt i32 %1, 1
  %8 = icmp sgt i32 %4, 1
  %or.cond = or i1 %7, %8
  br i1 %or.cond, label %23, label %9

9:                                                ; preds = %6
  %10 = trunc i32 %3 to i8
  %11 = tail call i32 @_ZN4Luau7CodeGen9IrBuilder5vmRegEh(ptr noundef nonnull align 8 dereferenceable(752) %0, i8 noundef zeroext %10)
  %12 = tail call i32 @_ZN4Luau7CodeGen9IrBuilder6vmExitEj(ptr noundef nonnull align 8 dereferenceable(752) %0, i32 noundef %5)
  tail call void @_ZN4Luau7CodeGen9IrBuilder15loadAndCheckTagENS0_4IrOpEhS2_(ptr noundef nonnull align 8 dereferenceable(752) %0, i32 %11, i8 noundef zeroext 5, i32 %12)
  %13 = tail call i32 @_ZN4Luau7CodeGen9IrBuilder5vmRegEh(ptr noundef nonnull align 8 dereferenceable(752) %0, i8 noundef zeroext %10)
  %14 = tail call i32 @_ZN4Luau7CodeGen9IrBuilder4instENS0_5IrCmdENS0_4IrOpE(ptr noundef nonnull align 8 dereferenceable(752) %0, i8 noundef zeroext 2, i32 %13)
  %15 = tail call i32 @_ZN4Luau7CodeGen9IrBuilder4instENS0_5IrCmdENS0_4IrOpE(ptr noundef nonnull align 8 dereferenceable(752) %0, i8 noundef zeroext 56, i32 %14)
  %16 = trunc i32 %2 to i8
  %17 = tail call i32 @_ZN4Luau7CodeGen9IrBuilder5vmRegEh(ptr noundef nonnull align 8 dereferenceable(752) %0, i8 noundef zeroext %16)
  %18 = tail call i32 @_ZN4Luau7CodeGen9IrBuilder4instENS0_5IrCmdENS0_4IrOpE(ptr noundef nonnull align 8 dereferenceable(752) %0, i8 noundef zeroext 63, i32 %15)
  %19 = tail call i32 @_ZN4Luau7CodeGen9IrBuilder4instENS0_5IrCmdENS0_4IrOpES3_(ptr noundef nonnull align 8 dereferenceable(752) %0, i8 noundef zeroext 15, i32 %17, i32 %18)
  %20 = tail call i32 @_ZN4Luau7CodeGen9IrBuilder5vmRegEh(ptr noundef nonnull align 8 dereferenceable(752) %0, i8 noundef zeroext %16)
  %21 = tail call i32 @_ZN4Luau7CodeGen9IrBuilder8constTagEh(ptr noundef nonnull align 8 dereferenceable(752) %0, i8 noundef zeroext 3)
  %22 = tail call i32 @_ZN4Luau7CodeGen9IrBuilder4instENS0_5IrCmdENS0_4IrOpES3_(ptr noundef nonnull align 8 dereferenceable(752) %0, i8 noundef zeroext 12, i32 %20, i32 %21)
  br label %23

23:                                               ; preds = %6, %9
  %.sroa.032.0.insert.insert = phi i64 [ 4294967298, %9 ], [ -4294967296, %6 ]
  ret i64 %.sroa.032.0.insert.insert
}